target datalayout = "e-m:e-p270:32:32-p271:32:32-p272:64:64-i64:64-i128:128-f80:128-n8:16:32:64-S128"
target triple = "x86_64-pc-linux-gnu"

%"class.OpenImageIO::v3_1_0::bmp_pvt::BmpFileHeader" = type { i16, i32, i16, i16, i32 }

; Function Attrs: mustprogress uwtable
define linkonce_odr hidden noundef zeroext i1 @_ZN11OpenImageIO6v3_1_07bmp_pvt6fwriteIiEEbPNS0_10Filesystem7IOProxyEPKT_(ptr noundef %0, ptr noundef %1) #4 comdat {
  %3 = alloca ptr, align 8
  %4 = alloca ptr, align 8
  store ptr %0, ptr %3, align 8, !tbaa !8
  store ptr %1, ptr %4, align 8, !tbaa !16
  %5 = load ptr, ptr %3, align 8, !tbaa !8
  %6 = load ptr, ptr %4, align 8, !tbaa !16
  %7 = load ptr, ptr %5, align 8, !tbaa !14
  %8 = getelementptr inbounds ptr, ptr %7, i64 8
  %9 = load ptr, ptr %8, align 8
  %10 = call noundef i64 %9(ptr noundef nonnull align 8 dereferenceable(88) %5, ptr noundef %6, i64 noundef 4)
  %11 = icmp eq i64 %10, 4
  ret i1 %11
}

; Function Attrs: mustprogress uwtable
define linkonce_odr hidden noundef zeroext i1 @_ZN11OpenImageIO6v3_1_07bmp_pvt6fwriteIsEEbPNS0_10Filesystem7IOProxyEPKT_(ptr noundef %0, ptr noundef %1) #4 comdat {
  %3 = alloca ptr, align 8
  %4 = alloca ptr, align 8
  store ptr %0, ptr %3, align 8, !tbaa !8
  store ptr %1, ptr %4, align 8, !tbaa !10
  %5 = load ptr, ptr %3, align 8, !tbaa !8
  %6 = load ptr, ptr %4, align 8, !tbaa !10
  %7 = load ptr, ptr %5, align 8, !tbaa !14
  %8 = getelementptr inbounds ptr, ptr %7, i64 8
  %9 = load ptr, ptr %8, align 8
  %10 = call noundef i64 %9(ptr noundef nonnull align 8 dereferenceable(88) %5, ptr noundef %6, i64 noundef 2)
  %11 = icmp eq i64 %10, 2
  ret i1 %11
}

; Function Attrs: mustprogress uwtable
define hidden noundef zeroext i1 @_ZN11OpenImageIO6v3_1_07bmp_pvt13BmpFileHeader12write_headerEPNS0_10Filesystem7IOProxyE(ptr noundef nonnull align 4 dereferenceable(16) %0, ptr noundef %1) #4 align 2 {
  %3 = alloca i1, align 1
  %4 = alloca ptr, align 8
  %5 = alloca ptr, align 8
  store ptr %0, ptr %4, align 8, !tbaa !3
  store ptr %1, ptr %5, align 8, !tbaa !8
  %6 = load ptr, ptr %4, align 8
  %7 = load ptr, ptr %5, align 8, !tbaa !8
  %8 = getelementptr inbounds nuw %"class.OpenImageIO::v3_1_0::bmp_pvt::BmpFileHeader", ptr %6, i32 0, i32 0
  %9 = call noundef zeroext i1 @_ZN11OpenImageIO6v3_1_07bmp_pvt6fwriteIsEEbPNS0_10Filesystem7IOProxyEPKT_(ptr noundef %7, ptr noundef %8)
  br i1 %9, label %10, label %26

10:                                               ; preds = %2
  %11 = load ptr, ptr %5, align 8, !tbaa !8
  %12 = getelementptr inbounds nuw %"class.OpenImageIO::v3_1_0::bmp_pvt::BmpFileHeader", ptr %6, i32 0, i32 1
  %13 = call noundef zeroext i1 @_ZN11OpenImageIO6v3_1_07bmp_pvt6fwriteIiEEbPNS0_10Filesystem7IOProxyEPKT_(ptr noundef %11, ptr noundef %12)
  br i1 %13, label %14, label %26

14:                                               ; preds = %10
  %15 = load ptr, ptr %5, align 8, !tbaa !8
  %16 = getelementptr inbounds nuw %"class.OpenImageIO::v3_1_0::bmp_pvt::BmpFileHeader", ptr %6, i32 0, i32 2
  %17 = call noundef zeroext i1 @_ZN11OpenImageIO6v3_1_07bmp_pvt6fwriteIsEEbPNS0_10Filesystem7IOProxyEPKT_(ptr noundef %15, ptr noundef %16)
  br i1 %17, label %18, label %26

18:                                               ; preds = %14
  %19 = load ptr, ptr %5, align 8, !tbaa !8
  %20 = getelementptr inbounds nuw %"class.OpenImageIO::v3_1_0::bmp_pvt::BmpFileHeader", ptr %6, i32 0, i32 3
  %21 = call noundef zeroext i1 @_ZN11OpenImageIO6v3_1_07bmp_pvt6fwriteIsEEbPNS0_10Filesystem7IOProxyEPKT_(ptr noundef %19, ptr noundef %20)
  br i1 %21, label %22, label %26

22:                                               ; preds = %18
  %23 = load ptr, ptr %5, align 8, !tbaa !8
  %24 = getelementptr inbounds nuw %"class.OpenImageIO::v3_1_0::bmp_pvt::BmpFileHeader", ptr %6, i32 0, i32 4
  %25 = call noundef zeroext i1 @_ZN11OpenImageIO6v3_1_07bmp_pvt6fwriteIiEEbPNS0_10Filesystem7IOProxyEPKT_(ptr noundef %23, ptr noundef %24)
  br i1 %25, label %27, label %26

26:                                               ; preds = %22, %18, %14, %10, %2
  store i1 false, ptr %3, align 1
  br label %28

27:                                               ; preds = %22
  store i1 true, ptr %3, align 1
  br label %28

28:                                               ; preds = %27, %26
  %29 = load i1, ptr %3, align 1
  ret i1 %29
}