; Function Attrs: mustprogress uwtable
define hidden noundef zeroext i1 @_ZN11OpenImageIO6v3_1_07bmp_pvt13BmpFileHeader12write_headerEPNS0_10Filesystem7IOProxyE(ptr noundef nonnull align 4 dereferenceable(16) %0, ptr noundef %1) local_unnamed_addr #3 align 2 {
  %3 = load ptr, ptr %1, align 8, !tbaa !3
  %4 = getelementptr inbounds nuw i8, ptr %3, i64 64
  %5 = load ptr, ptr %4, align 8
  %6 = tail call noundef i64 %5(ptr noundef nonnull align 8 dereferenceable(88) %1, ptr noundef nonnull %0, i64 noundef 2)
  %7 = icmp eq i64 %6, 2
  br i1 %7, label %8, label %36

8:                                                ; preds = %2
  %9 = getelementptr inbounds nuw i8, ptr %0, i64 4
  %10 = load ptr, ptr %1, align 8, !tbaa !3
  %11 = getelementptr inbounds nuw i8, ptr %10, i64 64
  %12 = load ptr, ptr %11, align 8
  %13 = tail call noundef i64 %12(ptr noundef nonnull align 8 dereferenceable(88) %1, ptr noundef nonnull %9, i64 noundef 4)
  %14 = icmp eq i64 %13, 4
  br i1 %14, label %15, label %36

15:                                               ; preds = %8
  %16 = getelementptr inbounds nuw i8, ptr %0, i64 8
  %17 = load ptr, ptr %1, align 8, !tbaa !3
  %18 = getelementptr inbounds nuw i8, ptr %17, i64 64
  %19 = load ptr, ptr %18, align 8
  %20 = tail call noundef i64 %19(ptr noundef nonnull align 8 dereferenceable(88) %1, ptr noundef nonnull %16, i64 noundef 2)
  %21 = icmp eq i64 %20, 2
  br i1 %21, label %22, label %36

22:                                               ; preds = %15
  %23 = getelementptr inbounds nuw i8, ptr %0, i64 10
  %24 = load ptr, ptr %1, align 8, !tbaa !3
  %25 = getelementptr inbounds nuw i8, ptr %24, i64 64
  %26 = load ptr, ptr %25, align 8
  %27 = tail call noundef i64 %26(ptr noundef nonnull align 8 dereferenceable(88) %1, ptr noundef nonnull %23, i64 noundef 2)
  %28 = icmp eq i64 %27, 2
  br i1 %28, label %29, label %36

29:                                               ; preds = %22
  %30 = getelementptr inbounds nuw i8, ptr %0, i64 12
  %31 = load ptr, ptr %1, align 8, !tbaa !3
  %32 = getelementptr inbounds nuw i8, ptr %31, i64 64
  %33 = load ptr, ptr %32, align 8
  %34 = tail call noundef i64 %33(ptr noundef nonnull align 8 dereferenceable(88) %1, ptr noundef nonnull %30, i64 noundef 4)
  %35 = icmp eq i64 %34, 4
  br label %36

36:                                               ; preds = %29, %2, %8, %15, %22
  %.0 = phi i1 [ false, %22 ], [ false, %15 ], [ false, %8 ], [ false, %2 ], [ %35, %29 ]
  ret i1 %.0
}